target datalayout = "e-m:e-p270:32:32-p271:32:32-p272:64:64-i64:64-i128:128-f80:128-n8:16:32:64-S128"
target triple = "x86_64-pc-linux-gnu"

%struct.strbuf = type { i64, i64, ptr }
%struct.ident_split = type { ptr, ptr, ptr, ptr, ptr, ptr, ptr, ptr }

@__const.rewrite_ident_line.namemail = private unnamed_addr constant %struct.strbuf { i64 0, i64 0, ptr @strbuf_slopbuf }, align 8
@.str.27 = private unnamed_addr constant [12 x i8] c"%.*s <%.*s>\00", align 1

; Function Attrs: nounwind uwtable
define internal i64 @rewrite_ident_line(ptr noundef %0, i64 noundef %1, ptr noundef %2, ptr noundef %3) #0 {
  %5 = alloca i64, align 8
  %6 = alloca ptr, align 8
  %7 = alloca i64, align 8
  %8 = alloca ptr, align 8
  %9 = alloca ptr, align 8
  %10 = alloca i64, align 8
  %11 = alloca i64, align 8
  %12 = alloca ptr, align 8
  %13 = alloca ptr, align 8
  %14 = alloca %struct.ident_split, align 8
  %15 = alloca i32, align 4
  %16 = alloca %struct.strbuf, align 8
  %17 = alloca i64, align 8
  store ptr %0, ptr %6, align 8, !tbaa !20
  store i64 %1, ptr %7, align 8, !tbaa !27
  store ptr %2, ptr %8, align 8, !tbaa !16
  store ptr %3, ptr %9, align 8, !tbaa !48
  call void @llvm.lifetime.start.p0(i64 8, ptr %10) #10
  call void @llvm.lifetime.start.p0(i64 8, ptr %11) #10
  call void @llvm.lifetime.start.p0(i64 8, ptr %12) #10
  call void @llvm.lifetime.start.p0(i64 8, ptr %13) #10
  call void @llvm.lifetime.start.p0(i64 64, ptr %14) #10
  %18 = load ptr, ptr %6, align 8, !tbaa !20
  %19 = load i64, ptr %7, align 8, !tbaa !27
  %20 = trunc i64 %19 to i32
  %21 = call i32 @split_ident_line(ptr noundef %14, ptr noundef %18, i32 noundef %20)
  %22 = icmp ne i32 %21, 0
  br i1 %22, label %23, label %24

23:                                               ; preds = %4
  store i64 0, ptr %5, align 8
  store i32 1, ptr %15, align 4
  br label %86

24:                                               ; preds = %4
  %25 = getelementptr inbounds nuw %struct.ident_split, ptr %14, i32 0, i32 2
  %26 = load ptr, ptr %25, align 8, !tbaa !33
  store ptr %26, ptr %13, align 8, !tbaa !20
  %27 = getelementptr inbounds nuw %struct.ident_split, ptr %14, i32 0, i32 3
  %28 = load ptr, ptr %27, align 8, !tbaa !37
  %29 = getelementptr inbounds nuw %struct.ident_split, ptr %14, i32 0, i32 2
  %30 = load ptr, ptr %29, align 8, !tbaa !33
  %31 = ptrtoint ptr %28 to i64
  %32 = ptrtoint ptr %30 to i64
  %33 = sub i64 %31, %32
  store i64 %33, ptr %11, align 8, !tbaa !27
  %34 = getelementptr inbounds nuw %struct.ident_split, ptr %14, i32 0, i32 0
  %35 = load ptr, ptr %34, align 8, !tbaa !31
  store ptr %35, ptr %12, align 8, !tbaa !20
  %36 = getelementptr inbounds nuw %struct.ident_split, ptr %14, i32 0, i32 1
  %37 = load ptr, ptr %36, align 8, !tbaa !35
  %38 = getelementptr inbounds nuw %struct.ident_split, ptr %14, i32 0, i32 0
  %39 = load ptr, ptr %38, align 8, !tbaa !31
  %40 = ptrtoint ptr %37 to i64
  %41 = ptrtoint ptr %39 to i64
  %42 = sub i64 %40, %41
  store i64 %42, ptr %10, align 8, !tbaa !27
  %43 = load ptr, ptr %9, align 8, !tbaa !48
  %44 = call i32 @map_user(ptr noundef %43, ptr noundef %13, ptr noundef %11, ptr noundef %12, ptr noundef %10)
  %45 = icmp ne i32 %44, 0
  br i1 %45, label %46, label %85

46:                                               ; preds = %24
  call void @llvm.lifetime.start.p0(i64 24, ptr %16) #10
  call void @llvm.memcpy.p0.p0.i64(ptr align 8 %16, ptr align 8 @__const.rewrite_ident_line.namemail, i64 24, i1 false)
  call void @llvm.lifetime.start.p0(i64 8, ptr %17) #10
  %47 = load i64, ptr %10, align 8, !tbaa !27
  %48 = trunc i64 %47 to i32
  %49 = load ptr, ptr %12, align 8, !tbaa !20
  %50 = load i64, ptr %11, align 8, !tbaa !27
  %51 = trunc i64 %50 to i32
  %52 = load ptr, ptr %13, align 8, !tbaa !20
  call void (ptr, ptr, ...) @strbuf_addf(ptr noundef %16, ptr noundef @.str.27, i32 noundef %48, ptr noundef %49, i32 noundef %51, ptr noundef %52)
  %53 = load ptr, ptr %8, align 8, !tbaa !16
  %54 = getelementptr inbounds nuw %struct.ident_split, ptr %14, i32 0, i32 0
  %55 = load ptr, ptr %54, align 8, !tbaa !31
  %56 = load ptr, ptr %8, align 8, !tbaa !16
  %57 = getelementptr inbounds nuw %struct.strbuf, ptr %56, i32 0, i32 2
  %58 = load ptr, ptr %57, align 8, !tbaa !13
  %59 = ptrtoint ptr %55 to i64
  %60 = ptrtoint ptr %58 to i64
  %61 = sub i64 %59, %60
  %62 = getelementptr inbounds nuw %struct.ident_split, ptr %14, i32 0, i32 3
  %63 = load ptr, ptr %62, align 8, !tbaa !37
  %64 = getelementptr inbounds nuw %struct.ident_split, ptr %14, i32 0, i32 0
  %65 = load ptr, ptr %64, align 8, !tbaa !31
  %66 = ptrtoint ptr %63 to i64
  %67 = ptrtoint ptr %65 to i64
  %68 = sub i64 %66, %67
  %69 = add nsw i64 %68, 1
  %70 = getelementptr inbounds nuw %struct.strbuf, ptr %16, i32 0, i32 2
  %71 = load ptr, ptr %70, align 8, !tbaa !13
  %72 = getelementptr inbounds nuw %struct.strbuf, ptr %16, i32 0, i32 1
  %73 = load i64, ptr %72, align 8, !tbaa !8
  call void @strbuf_splice(ptr noundef %53, i64 noundef %61, i64 noundef %69, ptr noundef %71, i64 noundef %73)
  %74 = getelementptr inbounds nuw %struct.strbuf, ptr %16, i32 0, i32 1
  %75 = load i64, ptr %74, align 8, !tbaa !8
  store i64 %75, ptr %17, align 8, !tbaa !27
  call void @strbuf_release(ptr noundef %16)
  %76 = load i64, ptr %17, align 8, !tbaa !27
  %77 = getelementptr inbounds nuw %struct.ident_split, ptr %14, i32 0, i32 3
  %78 = load ptr, ptr %77, align 8, !tbaa !37
  %79 = getelementptr inbounds nuw %struct.ident_split, ptr %14, i32 0, i32 0
  %80 = load ptr, ptr %79, align 8, !tbaa !31
  %81 = ptrtoint ptr %78 to i64
  %82 = ptrtoint ptr %80 to i64
  %83 = sub i64 %81, %82
  %84 = sub i64 %76, %83
  store i64 %84, ptr %5, align 8
  store i32 1, ptr %15, align 4
  call void @llvm.lifetime.end.p0(i64 8, ptr %17) #10
  call void @llvm.lifetime.end.p0(i64 24, ptr %16) #10
  br label %86

85:                                               ; preds = %24
  store i64 0, ptr %5, align 8
  store i32 1, ptr %15, align 4
  br label %86

86:                                               ; preds = %85, %46, %23
  call void @llvm.lifetime.end.p0(i64 64, ptr %14) #10
  call void @llvm.lifetime.end.p0(i64 8, ptr %13) #10
  call void @llvm.lifetime.end.p0(i64 8, ptr %12) #10
  call void @llvm.lifetime.end.p0(i64 8, ptr %11) #10
  call void @llvm.lifetime.end.p0(i64 8, ptr %10) #10
  %87 = load i64, ptr %5, align 8
  ret i64 %87
}

; Function Attrs: inlinehint nounwind uwtable
define internal zeroext i1 @skip_prefix(ptr noundef %0, ptr noundef %1, ptr noundef %2) #4 {
  %4 = alloca i1, align 1
  %5 = alloca ptr, align 8
  %6 = alloca ptr, align 8
  %7 = alloca ptr, align 8
  store ptr %0, ptr %5, align 8, !tbaa !20
  store ptr %1, ptr %6, align 8, !tbaa !20
  store ptr %2, ptr %7, align 8, !tbaa !46
  br label %8

8:                                                ; preds = %16, %3
  %9 = load ptr, ptr %6, align 8, !tbaa !20
  %10 = load i8, ptr %9, align 1, !tbaa !21
  %11 = icmp ne i8 %10, 0
  br i1 %11, label %15, label %12

12:                                               ; preds = %8
  %13 = load ptr, ptr %5, align 8, !tbaa !20
  %14 = load ptr, ptr %7, align 8, !tbaa !46
  store ptr %13, ptr %14, align 8, !tbaa !20
  store i1 true, ptr %4, align 1
  br label %27

15:                                               ; preds = %8
  br label %16

16:                                               ; preds = %15
  %17 = load ptr, ptr %5, align 8, !tbaa !20
  %18 = getelementptr inbounds nuw i8, ptr %17, i32 1
  store ptr %18, ptr %5, align 8, !tbaa !20
  %19 = load i8, ptr %17, align 1, !tbaa !21
  %20 = sext i8 %19 to i32
  %21 = load ptr, ptr %6, align 8, !tbaa !20
  %22 = getelementptr inbounds nuw i8, ptr %21, i32 1
  store ptr %22, ptr %6, align 8, !tbaa !20
  %23 = load i8, ptr %21, align 1, !tbaa !21
  %24 = sext i8 %23 to i32
  %25 = icmp eq i32 %20, %24
  br i1 %25, label %8, label %26, !llvm.loop !51

26:                                               ; preds = %16
  store i1 false, ptr %4, align 1
  br label %27

27:                                               ; preds = %26, %12
  %28 = load i1, ptr %4, align 1
  ret i1 %28
}

; Function Attrs: nounwind uwtable
define dso_local void @apply_mailmap_to_header(ptr noundef %0, ptr noundef %1, ptr noundef %2) #0 {
  %4 = alloca ptr, align 8
  %5 = alloca ptr, align 8
  %6 = alloca ptr, align 8
  %7 = alloca i64, align 8
  %8 = alloca i32, align 4
  %9 = alloca ptr, align 8
  %10 = alloca ptr, align 8
  %11 = alloca i64, align 8
  %12 = alloca i32, align 4
  %13 = alloca ptr, align 8
  store ptr %0, ptr %4, align 8, !tbaa !16
  store ptr %1, ptr %5, align 8, !tbaa !46
  store ptr %2, ptr %6, align 8, !tbaa !48
  call void @llvm.lifetime.start.p0(i64 8, ptr %7) #10
  store i64 0, ptr %7, align 8, !tbaa !27
  %14 = load ptr, ptr %6, align 8, !tbaa !48
  %15 = icmp ne ptr %14, null
  br i1 %15, label %17, label %16

16:                                               ; preds = %3
  store i32 1, ptr %8, align 4
  br label %100

17:                                               ; preds = %3
  br label %18

18:                                               ; preds = %99, %17
  call void @llvm.lifetime.start.p0(i64 8, ptr %9) #10
  call void @llvm.lifetime.start.p0(i64 8, ptr %10) #10
  call void @llvm.lifetime.start.p0(i64 8, ptr %11) #10
  call void @llvm.lifetime.start.p0(i64 4, ptr %12) #10
  store i32 0, ptr %12, align 4, !tbaa !4
  %19 = load ptr, ptr %4, align 8, !tbaa !16
  %20 = getelementptr inbounds nuw %struct.strbuf, ptr %19, i32 0, i32 2
  %21 = load ptr, ptr %20, align 8, !tbaa !13
  %22 = load i64, ptr %7, align 8, !tbaa !27
  %23 = getelementptr inbounds nuw i8, ptr %21, i64 %22
  store ptr %23, ptr %10, align 8, !tbaa !20
  %24 = load ptr, ptr %10, align 8, !tbaa !20
  %25 = load i8, ptr %24, align 1, !tbaa !21
  %26 = icmp ne i8 %25, 0
  br i1 %26, label %27, label %32

27:                                               ; preds = %18
  %28 = load ptr, ptr %10, align 8, !tbaa !20
  %29 = load i8, ptr %28, align 1, !tbaa !21
  %30 = sext i8 %29 to i32
  %31 = icmp eq i32 %30, 10
  br i1 %31, label %32, label %33

32:                                               ; preds = %27, %18
  store i32 1, ptr %8, align 4
  br label %97

33:                                               ; preds = %27
  store i64 0, ptr %11, align 8, !tbaa !27
  br label %34

34:                                               ; preds = %69, %33
  %35 = load ptr, ptr %5, align 8, !tbaa !46
  %36 = load i64, ptr %11, align 8, !tbaa !27
  %37 = getelementptr inbounds nuw ptr, ptr %35, i64 %36
  %38 = load ptr, ptr %37, align 8, !tbaa !20
  %39 = icmp ne ptr %38, null
  br i1 %39, label %40, label %72

40:                                               ; preds = %34
  %41 = load ptr, ptr %10, align 8, !tbaa !20
  %42 = load ptr, ptr %5, align 8, !tbaa !46
  %43 = load i64, ptr %11, align 8, !tbaa !27
  %44 = getelementptr inbounds nuw ptr, ptr %42, i64 %43
  %45 = load ptr, ptr %44, align 8, !tbaa !20
  %46 = call zeroext i1 @skip_prefix(ptr noundef %41, ptr noundef %45, ptr noundef %9)
  br i1 %46, label %47, label %68

47:                                               ; preds = %40
  call void @llvm.lifetime.start.p0(i64 8, ptr %13) #10
  %48 = load ptr, ptr %9, align 8, !tbaa !20
  %49 = call ptr @strchrnul(ptr noundef %48, i32 noundef 10) #12
  store ptr %49, ptr %13, align 8, !tbaa !20
  store i32 1, ptr %12, align 4, !tbaa !4
  %50 = load ptr, ptr %13, align 8, !tbaa !20
  %51 = load ptr, ptr %10, align 8, !tbaa !20
  %52 = ptrtoint ptr %50 to i64
  %53 = ptrtoint ptr %51 to i64
  %54 = sub i64 %52, %53
  %55 = load i64, ptr %7, align 8, !tbaa !27
  %56 = add i64 %55, %54
  store i64 %56, ptr %7, align 8, !tbaa !27
  %57 = load ptr, ptr %9, align 8, !tbaa !20
  %58 = load ptr, ptr %13, align 8, !tbaa !20
  %59 = load ptr, ptr %9, align 8, !tbaa !20
  %60 = ptrtoint ptr %58 to i64
  %61 = ptrtoint ptr %59 to i64
  %62 = sub i64 %60, %61
  %63 = load ptr, ptr %4, align 8, !tbaa !16
  %64 = load ptr, ptr %6, align 8, !tbaa !48
  %65 = call i64 @rewrite_ident_line(ptr noundef %57, i64 noundef %62, ptr noundef %63, ptr noundef %64)
  %66 = load i64, ptr %7, align 8, !tbaa !27
  %67 = add i64 %66, %65
  store i64 %67, ptr %7, align 8, !tbaa !27
  store i32 4, ptr %8, align 4
  call void @llvm.lifetime.end.p0(i64 8, ptr %13) #10
  br label %72

68:                                               ; preds = %40
  br label %69

69:                                               ; preds = %68
  %70 = load i64, ptr %11, align 8, !tbaa !27
  %71 = add i64 %70, 1
  store i64 %71, ptr %11, align 8, !tbaa !27
  br label %34, !llvm.loop !50

72:                                               ; preds = %47, %34
  %73 = load i32, ptr %12, align 4, !tbaa !4
  %74 = icmp ne i32 %73, 0
  br i1 %74, label %96, label %75

75:                                               ; preds = %72
  %76 = load ptr, ptr %10, align 8, !tbaa !20
  %77 = call ptr @strchrnul(ptr noundef %76, i32 noundef 10) #12
  %78 = load ptr, ptr %4, align 8, !tbaa !16
  %79 = getelementptr inbounds nuw %struct.strbuf, ptr %78, i32 0, i32 2
  %80 = load ptr, ptr %79, align 8, !tbaa !13
  %81 = ptrtoint ptr %77 to i64
  %82 = ptrtoint ptr %80 to i64
  %83 = sub i64 %81, %82
  store i64 %83, ptr %7, align 8, !tbaa !27
  %84 = load ptr, ptr %4, align 8, !tbaa !16
  %85 = getelementptr inbounds nuw %struct.strbuf, ptr %84, i32 0, i32 2
  %86 = load ptr, ptr %85, align 8, !tbaa !13
  %87 = load i64, ptr %7, align 8, !tbaa !27
  %88 = getelementptr inbounds nuw i8, ptr %86, i64 %87
  %89 = load i8, ptr %88, align 1, !tbaa !21
  %90 = sext i8 %89 to i32
  %91 = icmp eq i32 %90, 10
  br i1 %91, label %92, label %95

92:                                               ; preds = %75
  %93 = load i64, ptr %7, align 8, !tbaa !27
  %94 = add i64 %93, 1
  store i64 %94, ptr %7, align 8, !tbaa !27
  br label %95

95:                                               ; preds = %92, %75
  br label %96

96:                                               ; preds = %95, %72
  store i32 0, ptr %8, align 4
  br label %97

97:                                               ; preds = %96, %32
  call void @llvm.lifetime.end.p0(i64 4, ptr %12) #10
  call void @llvm.lifetime.end.p0(i64 8, ptr %11) #10
  call void @llvm.lifetime.end.p0(i64 8, ptr %10) #10
  call void @llvm.lifetime.end.p0(i64 8, ptr %9) #10
  %98 = load i32, ptr %8, align 4
  switch i32 %98, label %100 [
    i32 0, label %99
  ]

99:                                               ; preds = %97
  br label %18

100:                                              ; preds = %97, %16
  call void @llvm.lifetime.end.p0(i64 8, ptr %7) #10
  ret void
}