; Function Attrs: nounwind uwtable
define dso_local void @apply_mailmap_to_header(ptr noundef %0, ptr noundef readonly captures(none) %1, ptr noundef %2) local_unnamed_addr #0 {
  %4 = alloca i64, align 8
  %5 = alloca i64, align 8
  %6 = alloca ptr, align 8
  %7 = alloca ptr, align 8
  %8 = alloca %struct.ident_split, align 8
  %9 = alloca %struct.strbuf, align 8
  %.not = icmp eq ptr %2, null
  br i1 %.not, label %.thread41, label %.preheader48

.preheader48:                                     ; preds = %3
  %10 = getelementptr inbounds nuw i8, ptr %0, i64 16
  %11 = getelementptr inbounds nuw i8, ptr %8, i64 16
  %12 = getelementptr inbounds nuw i8, ptr %8, i64 24
  %13 = getelementptr inbounds nuw i8, ptr %8, i64 8
  %14 = getelementptr inbounds nuw i8, ptr %9, i64 16
  %15 = getelementptr inbounds nuw i8, ptr %9, i64 8
  br label %16

16:                                               ; preds = %.backedge, %.preheader48
  %.0 = phi i64 [ 0, %.preheader48 ], [ %.0.be, %.backedge ]
  %17 = load ptr, ptr %10, align 8, !tbaa !18
  %18 = getelementptr inbounds nuw i8, ptr %17, i64 %.0
  %19 = load i8, ptr %18, align 1, !tbaa !13
  switch i8 %19, label %.preheader47 [
    i8 0, label %.thread41
    i8 10, label %.thread41
  ]

.preheader47:                                     ; preds = %16
  %20 = load ptr, ptr %1, align 8, !tbaa !42
  %.not3050 = icmp eq ptr %20, null
  br i1 %.not3050, label %.thread, label %.preheader

.preheader:                                       ; preds = %.preheader47, %skip_prefix.exit
  %21 = phi ptr [ %67, %skip_prefix.exit ], [ %20, %.preheader47 ]
  %.02551 = phi i64 [ %65, %skip_prefix.exit ], [ 0, %.preheader47 ]
  br label %22

22:                                               ; preds = %.preheader, %24
  %.07.i = phi ptr [ %25, %24 ], [ %18, %.preheader ]
  %.06.i = phi ptr [ %27, %24 ], [ %21, %.preheader ]
  %23 = load i8, ptr %.06.i, align 1, !tbaa !13
  %.not.i = icmp eq i8 %23, 0
  br i1 %.not.i, label %29, label %24

24:                                               ; preds = %22
  %25 = getelementptr inbounds nuw i8, ptr %.07.i, i64 1
  %26 = load i8, ptr %.07.i, align 1, !tbaa !13
  %27 = getelementptr inbounds nuw i8, ptr %.06.i, i64 1
  %28 = icmp eq i8 %26, %23
  br i1 %28, label %22, label %skip_prefix.exit, !llvm.loop !43

29:                                               ; preds = %22
  %30 = call ptr @strchrnul(ptr noundef nonnull %.07.i, i32 noundef 10) #20
  %31 = ptrtoint ptr %30 to i64
  %32 = ptrtoint ptr %18 to i64
  %33 = ptrtoint ptr %.07.i to i64
  %34 = sub i64 %31, %33
  call void @llvm.lifetime.start.p0(i64 8, ptr nonnull %4) #19
  call void @llvm.lifetime.start.p0(i64 8, ptr nonnull %5) #19
  call void @llvm.lifetime.start.p0(i64 8, ptr nonnull %6) #19
  call void @llvm.lifetime.start.p0(i64 8, ptr nonnull %7) #19
  call void @llvm.lifetime.start.p0(i64 64, ptr nonnull %8) #19
  %35 = trunc i64 %34 to i32
  %36 = call i32 @split_ident_line(ptr noundef nonnull %8, ptr noundef nonnull %.07.i, i32 noundef %35)
  %.not.i32 = icmp eq i32 %36, 0
  br i1 %.not.i32, label %37, label %68

37:                                               ; preds = %29
  %38 = load ptr, ptr %11, align 8, !tbaa !30
  store ptr %38, ptr %7, align 8, !tbaa !42
  %39 = load ptr, ptr %12, align 8, !tbaa !34
  %40 = ptrtoint ptr %39 to i64
  %41 = ptrtoint ptr %38 to i64
  %42 = sub i64 %40, %41
  store i64 %42, ptr %5, align 8, !tbaa !44
  %43 = load ptr, ptr %8, align 8, !tbaa !27
  store ptr %43, ptr %6, align 8, !tbaa !42
  %44 = load ptr, ptr %13, align 8, !tbaa !32
  %45 = ptrtoint ptr %44 to i64
  %46 = ptrtoint ptr %43 to i64
  %47 = sub i64 %45, %46
  store i64 %47, ptr %4, align 8, !tbaa !44
  %48 = call i32 @map_user(ptr noundef nonnull %2, ptr noundef nonnull %7, ptr noundef nonnull %5, ptr noundef nonnull %6, ptr noundef nonnull %4) #19
  %.not6.i = icmp eq i32 %48, 0
  br i1 %.not6.i, label %68, label %49

49:                                               ; preds = %37
  call void @llvm.lifetime.start.p0(i64 24, ptr nonnull %9) #19
  call void @llvm.memcpy.p0.p0.i64(ptr noundef nonnull align 8 dereferenceable(24) %9, ptr noundef nonnull align 8 dereferenceable(24) @__const.rewrite_ident_line.namemail, i64 24, i1 false)
  %50 = load i64, ptr %4, align 8, !tbaa !44
  %51 = trunc i64 %50 to i32
  %52 = load ptr, ptr %6, align 8, !tbaa !42
  %53 = load i64, ptr %5, align 8, !tbaa !44
  %54 = trunc i64 %53 to i32
  %55 = load ptr, ptr %7, align 8, !tbaa !42
  call void (ptr, ptr, ...) @strbuf_addf(ptr noundef nonnull %9, ptr noundef nonnull @.str.27, i32 noundef %51, ptr noundef %52, i32 noundef %54, ptr noundef %55) #19
  %56 = load ptr, ptr %10, align 8, !tbaa !18
  %57 = ptrtoint ptr %56 to i64
  %58 = sub i64 %46, %57
  %59 = add i64 %40, 1
  %60 = sub i64 %59, %46
  %61 = load ptr, ptr %14, align 8, !tbaa !18
  %62 = load i64, ptr %15, align 8, !tbaa !17
  call void @strbuf_splice(ptr noundef %0, i64 noundef %58, i64 noundef %60, ptr noundef %61, i64 noundef %62) #19
  %63 = load i64, ptr %15, align 8, !tbaa !17
  call void @strbuf_release(ptr noundef nonnull %9) #19
  %.neg.i = sub i64 %46, %40
  %64 = add i64 %.neg.i, %63
  call void @llvm.lifetime.end.p0(i64 24, ptr nonnull %9) #19
  br label %68

skip_prefix.exit:                                 ; preds = %24
  %65 = add i64 %.02551, 1
  %66 = getelementptr inbounds nuw ptr, ptr %1, i64 %65
  %67 = load ptr, ptr %66, align 8, !tbaa !42
  %.not30 = icmp eq ptr %67, null
  br i1 %.not30, label %.thread, label %.preheader, !llvm.loop !45

68:                                               ; preds = %49, %37, %29
  %.0.i = phi i64 [ %64, %49 ], [ 0, %29 ], [ 0, %37 ]
  call void @llvm.lifetime.end.p0(i64 64, ptr nonnull %8) #19
  call void @llvm.lifetime.end.p0(i64 8, ptr nonnull %7) #19
  call void @llvm.lifetime.end.p0(i64 8, ptr nonnull %6) #19
  call void @llvm.lifetime.end.p0(i64 8, ptr nonnull %5) #19
  call void @llvm.lifetime.end.p0(i64 8, ptr nonnull %4) #19
  %69 = sub i64 %.0, %32
  %70 = add i64 %69, %31
  %71 = add i64 %70, %.0.i
  br label %.backedge

.backedge:                                        ; preds = %68, %.thread
  %.0.be = phi i64 [ %71, %68 ], [ %spec.select, %.thread ]
  br label %16

.thread:                                          ; preds = %skip_prefix.exit, %.preheader47
  %72 = call ptr @strchrnul(ptr noundef nonnull %18, i32 noundef 10) #20
  %73 = ptrtoint ptr %72 to i64
  %74 = ptrtoint ptr %17 to i64
  %75 = sub i64 %73, %74
  %76 = getelementptr inbounds nuw i8, ptr %17, i64 %75
  %77 = load i8, ptr %76, align 1, !tbaa !13
  %78 = icmp eq i8 %77, 10
  %79 = zext i1 %78 to i64
  %spec.select = add i64 %75, %79
  br label %.backedge

.thread41:                                        ; preds = %16, %16, %3
  ret void
}